; Function Attrs: nounwind uwtable
define internal range(i32 0, 2) i32 @test_ctype_tolower(i32 noundef %0) #0 {
  %2 = sext i32 %0 to i64
  %3 = getelementptr inbounds [8 x %struct.anon], ptr @case_change, i64 0, i64 %2
  %4 = load i32, ptr %3, align 8, !tbaa !14
  %5 = tail call i32 @ossl_tolower(i32 noundef %4) #3
  %6 = getelementptr inbounds nuw i8, ptr %3, i64 4
  %7 = load i32, ptr %6, align 4, !tbaa !11
  %8 = tail call i32 @test_int_eq(ptr noundef nonnull @.str.4, i32 noundef 74, ptr noundef nonnull @.str.34, ptr noundef nonnull @.str.35, i32 noundef %5, i32 noundef %7) #3
  %.not = icmp eq i32 %8, 0
  br i1 %.not, label %14, label %9

9:                                                ; preds = %1
  %10 = tail call i32 @ossl_tolower(i32 noundef %7) #3
  %11 = tail call i32 @test_int_eq(ptr noundef nonnull @.str.4, i32 noundef 75, ptr noundef nonnull @.str.36, ptr noundef nonnull @.str.35, i32 noundef %10, i32 noundef %7) #3
  %12 = icmp ne i32 %11, 0
  %13 = zext i1 %12 to i32
  br label %14

14:                                               ; preds = %9, %1
  %15 = phi i32 [ 0, %1 ], [ %13, %9 ]
  ret i32 %15
}